; Function Attrs: mustprogress nofree norecurse nosync nounwind memory(readwrite, inaccessiblemem: none) uwtable
define dso_local void @_ZN4llvm12ilist_traitsINS_12MachineInstrEE21transferNodesFromListERS2_NS_14ilist_iteratorINS_12ilist_detail12node_optionsIS1_Lb1ELb1EvLb0EvEELb0ELb0EEES8_(ptr noundef nonnull readonly align 8 dereferenceable(8) %0, ptr noundef nonnull readnone align 8 dereferenceable(8) %1, ptr %2, ptr readnone %3) local_unnamed_addr #7 align 2 {
  %5 = icmp eq ptr %0, %1
  %.not5 = icmp eq ptr %2, %3
  %or.cond = select i1 %5, i1 true, i1 %.not5
  br i1 %or.cond, label %.loopexit, label %.lr.ph.preheader

.lr.ph.preheader:                                 ; preds = %4
  %.pre = load ptr, ptr %0, align 8
  br label %.lr.ph

.lr.ph:                                           ; preds = %.lr.ph.preheader, %.lr.ph
  %.sroa.02.06 = phi ptr [ %8, %.lr.ph ], [ %2, %.lr.ph.preheader ]
  %6 = getelementptr inbounds nuw i8, ptr %.sroa.02.06, i64 24
  store ptr %.pre, ptr %6, align 8
  %7 = getelementptr inbounds nuw i8, ptr %.sroa.02.06, i64 8
  %8 = load ptr, ptr %7, align 8
  %.not = icmp eq ptr %8, %3
  br i1 %.not, label %.loopexit, label %.lr.ph, !llvm.loop !51

.loopexit:                                        ; preds = %.lr.ph, %4
  ret void
}